Certificate:
    Data:
        Version: 3 (0x2)
        Serial Number: 4097 (0x1001)
        Signature Algorithm: sha256WithRSAEncryption
        Issuer: CN=NationalBank-Root-CA
        Validity
            Not Before: Aug 10 09:43:24 2025 GMT
            Not After : Nov 13 09:43:24 2027 GMT
        Subject: C=IN, ST=Karnataka, L=Bangalore, O=nationalbank, OU=nationalbank, CN=api.nationalbank.com
        Subject Public Key Info:
            Public Key Algorithm: rsaEncryption
                Public-Key: (2048 bit)
                Modulus:
                    00:9b:43:02:2a:94:6f:77:d1:40:00:4f:cb:33:96:
                    39:ec:8e:30:c8:76:03:0c:7d:e4:9f:a3:5c:54:e5:
                    4f:c0:ee:a3:dc:21:70:bf:89:98:7c:72:64:7a:9f:
                    c9:15:b1:08:1c:e2:64:0d:92:67:3b:1f:ff:c6:97:
                    3f:e9:4c:9c:9e:c1:e7:b6:0e:88:dc:0f:21:75:9b:
                    e1:e2:97:f6:56:cc:c6:25:22:22:b6:79:96:a5:a6:
                    c5:84:a1:5a:5b:24:93:d4:cd:3c:00:16:af:5c:f9:
                    6e:40:ff:ef:57:49:c9:9c:a3:6a:80:e4:2f:58:82:
                    e6:e5:0e:f5:3a:61:46:26:08:47:62:39:84:56:b8:
                    05:92:72:67:dd:b0:d8:5c:37:81:53:b9:40:a9:f3:
                    27:6b:2c:da:aa:5e:d9:aa:57:6c:03:06:ed:84:95:
                    57:db:a9:23:11:b9:ed:4a:9f:d3:33:85:6e:f9:8e:
                    13:59:65:58:72:13:96:da:68:c1:fb:54:c8:2d:79:
                    3a:e7:89:15:af:2a:72:bc:c3:1a:5b:21:89:06:d0:
                    84:2f:0a:30:15:ad:c7:0d:41:b5:ed:1a:29:47:81:
                    55:bd:24:46:ce:72:32:fd:5d:34:64:b7:bd:c5:8e:
                    ac:96:4f:84:2e:ac:ca:22:7d:51:05:a5:33:ee:3a:
                    cc:f1
                Exponent: 65537 (0x10001)
        X509v3 extensions:
            X509v3 Subject Alternative Name: 
                DNS:api.nationalbank.com
            X509v3 Key Usage: 
                Digital Signature, Key Encipherment
            X509v3 Extended Key Usage: 
                TLS Web Server Authentication, TLS Web Client Authentication
            X509v3 Basic Constraints: 
                CA:FALSE
            X509v3 Subject Key Identifier: 
                CC:C1:05:A4:53:4D:F8:EE:2B:04:1B:5B:C4:B1:AF:07:FF:FE:BE:FD
            X509v3 Authority Key Identifier: 
                18:9E:70:38:C7:5A:BD:D9:5C:27:90:7A:EB:60:89:05:4B:7B:D1:38
    Signature Algorithm: sha256WithRSAEncryption
    Signature Value:
        0f:76:b8:62:79:5d:fb:0e:15:d5:c4:6f:d1:2e:67:1b:2c:0e:
        ab:b5:f9:c2:5a:ee:cf:2c:e5:dd:04:eb:61:ee:02:37:62:32:
        f4:7f:e3:8f:c8:3d:98:47:b5:ed:9f:91:d4:c4:5e:b4:be:af:
        97:1b:d8:dd:b9:2c:b4:08:b7:d1:c6:cb:f3:ab:be:96:61:86:
        fc:d0:1a:bd:39:8e:e7:51:04:40:89:12:93:21:1f:90:a0:25:
        6e:15:b5:87:e7:4e:d8:81:0e:e0:96:cc:ee:f2:c8:25:22:6d:
        79:42:2b:a9:65:8b:ef:c5:17:a5:d8:12:e1:4f:49:a5:6c:59:
        73:68:31:85:e2:05:79:a5:d6:d1:bd:4c:ac:80:38:9a:6f:6d:
        dd:be:a9:2d:03:b7:f5:7b:72:e1:be:21:80:09:6d:27:2d:20:
        f5:9a:91:6d:7e:ca:93:a6:c3:49:24:ea:0d:6c:af:91:72:2b:
        a9:e3:15:fc:5d:cc:a6:98:99:aa:36:44:5a:62:82:05:ed:a4:
        d1:2e:30:c9:8a:8c:0b:cc:c5:54:20:ba:1b:74:bb:d8:08:5c:
        03:cd:af:dd:d9:b0:89:01:87:3c:e9:0d:58:fa:a1:6f:61:d7:
        c4:9e:2a:76:95:34:43:e5:0a:a6:7b:7e:d6:cf:d6:ab:5f:05:
        30:f7:29:2d:4d:bb:19:52:43:95:7b:9e:77:52:48:0a:75:0f:
        0e:57:52:56:f2:87:4d:cc:8d:e9:c6:6e:46:22:a1:8e:d9:fe:
        e0:d4:5b:d8:03:c3:ec:e7:e8:72:2b:c1:ef:38:b4:b8:05:25:
        5c:3f:94:f0:1c:63:9a:81:72:9c:ca:60:e7:ab:2b:5e:59:70:
        8e:ab:9b:b4:36:39:ac:36:3b:fb:16:2d:ae:63:69:0e:40:61:
        20:3e:53:c7:90:6f:79:c1:0a:77:60:a4:b4:f6:a7:02:3c:ea:
        ad:c5:c7:5d:41:5e:49:e7:d2:1e:4a:3b:fd:aa:fc:cd:fe:f0:
        4e:7b:df:81:bc:88:d6:3c:b7:5b:93:c3:8a:58:dd:43:85:a8:
        fa:f7:26:ad:0a:52:e8:c8:bd:d0:56:75:7b:05:c7:c8:aa:cd:
        4c:71:77:c6:ee:9f:5e:07:a2:26:40:14:11:a8:cf:08:9c:f5:
        58:1c:21:6d:da:65:d2:1a:2c:d7:95:b7:5d:d1:8d:71:57:2a:
        31:65:50:c0:9d:a3:8f:48:5e:5f:33:10:68:9f:f7:c6:79:cc:
        aa:91:41:2a:7a:79:73:b3:ce:27:96:a1:df:0e:e7:e4:59:b2:
        72:8e:a4:da:da:49:01:88:2b:d0:51:b1:6c:ea:e6:0b:51:ba:
        4c:2a:b8:8b:da:c5:b2:88
-----BEGIN CERTIFICATE-----
MIIEujCCAqKgAwIBAgICEAEwDQYJKoZIhvcNAQELBQAwHzEdMBsGA1UEAwwUTmF0
aW9uYWxCYW5rLVJvb3QtQ0EwHhcNMjUwODEwMDk0MzI0WhcNMjcxMTEzMDk0MzI0
WjCBgjELMAkGA1UEBhMCSU4xEjAQBgNVBAgMCUthcm5hdGFrYTESMBAGA1UEBwwJ
QmFuZ2Fsb3JlMRUwEwYDVQQKDAxuYXRpb25hbGJhbmsxFTATBgNVBAsMDG5hdGlv
bmFsYmFuazEdMBsGA1UEAwwUYXBpLm5hdGlvbmFsYmFuay5jb20wggEiMA0GCSqG
SIb3DQEBAQUAA4IBDwAwggEKAoIBAQCbQwIqlG930UAAT8szljnsjjDIdgMMfeSf
o1xU5U/A7qPcIXC/iZh8cmR6n8kVsQgc4mQNkmc7H//Glz/pTJyewee2DojcDyF1
m+Hil/ZWzMYlIiK2eZalpsWEoVpbJJPUzTwAFq9c+W5A/+9XScmco2qA5C9Ygubl
DvU6YUYmCEdiOYRWuAWScmfdsNhcN4FTuUCp8ydrLNqqXtmqV2wDBu2ElVfbqSMR
ue1Kn9MzhW75jhNZZVhyE5baaMH7VMgteTrniRWvKnK8wxpbIYkG0IQvCjAVrccN
QbXtGilHgVW9JEbOcjL9XTRkt73FjqyWT4QurMoifVEFpTPuOszxAgMBAAGjgZsw
gZgwHwYDVR0RBBgwFoIUYXBpLm5hdGlvbmFsYmFuay5jb20wCwYDVR0PBAQDAgWg
MB0GA1UdJQQWMBQGCCsGAQUFBwMBBggrBgEFBQcDAjAJBgNVHRMEAjAAMB0GA1Ud
DgQWBBTMwQWkU0347isEG1vEsa8H//6+/TAfBgNVHSMEGDAWgBQYnnA4x1q92Vwn
kHrrYIkFS3vRODANBgkqhkiG9w0BAQsFAAOCAgEAD3a4Ynld+w4V1cRv0S5nGywO
q7X5wlruzyzl3QTrYe4CN2Iy9H/jj8g9mEe17Z+R1MRetL6vlxvY3bkstAi30cbL
86u+lmGG/NAavTmO51EEQIkSkyEfkKAlbhW1h+dO2IEO4JbM7vLIJSJteUIrqWWL
78UXpdgS4U9JpWxZc2gxheIFeaXW0b1MrIA4mm9t3b6pLQO39Xty4b4hgAltJy0g
9ZqRbX7Kk6bDSSTqDWyvkXIrqeMV/F3MppiZqjZEWmKCBe2k0S4wyYqMC8zFVCC6
G3S72AhcA82v3dmwiQGHPOkNWPqhb2HXxJ4qdpU0Q+UKpnt+1s/Wq18FMPcpLU27
GVJDlXued1JICnUPDldSVvKHTcyN6cZuRiKhjtn+4NRb2APD7OfocivB7zi0uAUl
XD+U8BxjmoFynMpg56srXllwjqubtDY5rDY7+xYtrmNpDkBhID5Tx5BvecEKd2Ck
tPanAjzqrcXHXUFeSefSHko7/ar8zf7wTnvfgbyI1jy3W5PDiljdQ4Wo+vcmrQpS
6Mi90FZ1ewXHyKrNTHF3xu6fXgeiJkAUEajPCJz1WBwhbdpl0hos15W3XdGNcVcq
MWVQwJ2jj0heXzMQaJ/3xnnMqpFBKnp5c7POJ5ah3w7n5Fmyco6k2tpJAYgr0FGx
bOrmC1G6TCq4i9rFsog=
-----END CERTIFICATE-----
