Certificate:
    Data:
        Version: 3 (0x2)
        Serial Number: 4098 (0x1002)
        Signature Algorithm: sha256WithRSAEncryption
        Issuer: CN=NationalBank-Root-CA
        Validity
            Not Before: Aug 10 11:24:06 2025 GMT
            Not After : Nov 13 11:24:06 2027 GMT
        Subject: C=IN, ST=Karnataka, L=Bangalore, O=nationalbank, OU=nationalbank, CN=api.FAKE.com
        Subject Public Key Info:
            Public Key Algorithm: rsaEncryption
                Public-Key: (2048 bit)
                Modulus:
                    00:b1:a1:bf:8b:23:ba:d2:25:d3:90:90:d1:4b:87:
                    0c:1e:b1:3b:49:10:c5:89:a9:75:5c:37:94:a2:78:
                    1f:37:27:68:0b:b1:d6:ea:04:f9:b1:ed:96:ec:d5:
                    5e:97:4a:9a:0c:0e:01:ff:e3:5c:8f:54:9d:45:bc:
                    9b:b3:c3:0d:c1:71:8e:c6:01:a2:0a:b3:3a:ff:e1:
                    52:f8:6d:e7:af:85:b7:ed:17:d8:ed:3f:27:3a:a5:
                    10:46:7e:66:0f:4e:ed:72:2f:5a:5c:df:02:05:33:
                    66:3f:02:03:93:8f:e4:b6:2b:a4:bf:84:c0:4e:67:
                    62:3c:e7:df:9e:b4:2b:6d:2e:56:42:c9:a9:48:8c:
                    f0:33:d1:51:52:b5:5e:ea:87:83:ff:5d:bb:7b:cf:
                    30:ad:fe:0c:ca:20:53:c0:e8:81:79:87:9c:19:24:
                    ab:7f:ac:ce:ee:18:73:30:a2:0e:f1:f3:ee:b2:84:
                    c2:a6:6c:30:f3:05:82:74:a6:dc:50:4d:f8:e3:01:
                    59:2e:b9:ff:95:a1:d5:23:56:04:d3:80:26:86:21:
                    b4:8c:21:b4:ea:a1:5a:9f:31:65:cd:9d:e6:9f:98:
                    92:86:4d:99:92:22:5c:13:50:05:74:39:1f:e0:e5:
                    65:e3:f9:8b:94:99:05:41:03:9a:8e:78:58:ab:85:
                    db:83
                Exponent: 65537 (0x10001)
        X509v3 extensions:
            X509v3 Subject Alternative Name: 
                DNS:api.FAKE.com
            X509v3 Key Usage: 
                Digital Signature, Key Encipherment
            X509v3 Extended Key Usage: 
                TLS Web Server Authentication, TLS Web Client Authentication
            X509v3 Basic Constraints: 
                CA:FALSE
            X509v3 Subject Key Identifier: 
                14:98:58:49:CC:CE:1E:82:6E:7C:37:31:7D:EB:EA:38:0D:13:96:93
            X509v3 Authority Key Identifier: 
                18:9E:70:38:C7:5A:BD:D9:5C:27:90:7A:EB:60:89:05:4B:7B:D1:38
    Signature Algorithm: sha256WithRSAEncryption
    Signature Value:
        91:62:4b:79:55:fb:1d:ad:72:35:ea:f5:4b:10:87:a0:52:e0:
        ca:90:ca:f4:23:84:00:9a:d8:c7:b2:7a:27:c5:02:86:b9:68:
        a5:2b:81:ae:c4:11:89:90:c8:d9:f9:6c:bf:30:5c:5b:eb:17:
        4a:96:5c:cd:41:fd:08:10:f5:88:0e:e9:c1:fc:98:78:a6:42:
        f9:f6:4f:7a:a4:ad:27:15:a4:c0:25:6b:8d:bb:06:86:80:93:
        8c:e0:c6:28:2c:4f:ca:06:57:a6:c6:70:21:4f:cf:37:61:23:
        a4:b1:3e:3f:b6:c3:e5:e6:0d:08:ad:ba:f0:b5:7e:6b:cc:7e:
        21:b8:e5:bf:a2:fb:e9:ab:b2:3f:35:4e:85:32:6a:09:7e:92:
        d1:58:31:b9:84:8e:b4:af:95:fb:93:3d:45:b2:5c:9b:1d:29:
        1f:6f:0d:bd:02:dc:ee:21:12:a9:8f:63:93:95:91:2a:e0:da:
        eb:d7:ea:1b:c0:03:6f:b8:d8:c3:ac:73:26:07:bd:f1:2f:ac:
        76:8f:ab:e4:0d:01:62:0d:7d:4e:0a:1b:a1:05:7e:04:f6:5b:
        c1:71:70:87:4b:c1:e1:70:e5:1c:0c:e8:59:b0:16:0c:3b:1b:
        22:17:2e:7d:ce:38:ba:25:b1:d2:02:e7:22:f6:d6:f2:b2:35:
        da:48:ee:e8:33:ee:dd:2e:93:8a:f3:3e:55:3c:65:d4:65:c2:
        c2:8b:0e:fc:d6:c7:53:40:e5:98:b5:60:ac:25:9f:fc:3c:5a:
        dc:0d:2d:d9:ef:3d:24:e5:0e:e0:83:dc:8c:95:5b:38:eb:a8:
        0b:1a:45:3f:ef:57:ec:fb:2e:56:9e:5e:ea:37:28:9b:f4:16:
        85:eb:fb:2b:09:6a:6f:0d:b0:e0:a4:7b:d6:2d:63:ac:02:42:
        00:b7:22:86:71:ed:e8:fa:d2:ec:b0:0d:7c:e3:68:b1:e1:59:
        41:49:61:bc:95:90:d8:e8:0b:01:4c:69:b5:e2:cb:a6:03:5c:
        3d:5c:2a:ee:0e:12:35:da:5a:d0:8f:ee:40:b4:ba:d8:9b:9d:
        d5:ec:b6:10:cf:10:48:d4:ad:14:98:2e:71:29:46:c5:9d:4d:
        c9:ca:23:8f:d4:38:4c:8f:49:5a:2f:d8:20:90:e2:75:2d:e4:
        48:1b:7c:86:d1:54:40:90:10:d0:75:ad:54:1b:0f:e2:e0:e2:
        96:bb:87:32:30:ca:b7:d3:44:1a:ae:46:4b:8e:b5:79:a2:54:
        c5:ff:5e:21:6a:55:e1:ed:6e:00:f2:ba:7f:ba:b7:23:ec:11:
        f7:dd:a7:b4:60:69:c9:0e:07:60:0c:b3:35:ad:63:b7:39:d1:
        7b:22:8a:98:69:94:65:a3
-----BEGIN CERTIFICATE-----
MIIEqTCCApGgAwIBAgICEAIwDQYJKoZIhvcNAQELBQAwHzEdMBsGA1UEAwwUTmF0
aW9uYWxCYW5rLVJvb3QtQ0EwHhcNMjUwODEwMTEyNDA2WhcNMjcxMTEzMTEyNDA2
WjB6MQswCQYDVQQGEwJJTjESMBAGA1UECAwJS2FybmF0YWthMRIwEAYDVQQHDAlC
YW5nYWxvcmUxFTATBgNVBAoMDG5hdGlvbmFsYmFuazEVMBMGA1UECwwMbmF0aW9u
YWxiYW5rMRUwEwYDVQQDDAxhcGkuRkFLRS5jb20wggEiMA0GCSqGSIb3DQEBAQUA
A4IBDwAwggEKAoIBAQCxob+LI7rSJdOQkNFLhwwesTtJEMWJqXVcN5SieB83J2gL
sdbqBPmx7Zbs1V6XSpoMDgH/41yPVJ1FvJuzww3BcY7GAaIKszr/4VL4beevhbft
F9jtPyc6pRBGfmYPTu1yL1pc3wIFM2Y/AgOTj+S2K6S/hMBOZ2I859+etCttLlZC
yalIjPAz0VFStV7qh4P/Xbt7zzCt/gzKIFPA6IF5h5wZJKt/rM7uGHMwog7x8+6y
hMKmbDDzBYJ0ptxQTfjjAVkuuf+VodUjVgTTgCaGIbSMIbTqoVqfMWXNneafmJKG
TZmSIlwTUAV0OR/g5WXj+YuUmQVBA5qOeFirhduDAgMBAAGjgZMwgZAwFwYDVR0R
BBAwDoIMYXBpLkZBS0UuY29tMAsGA1UdDwQEAwIFoDAdBgNVHSUEFjAUBggrBgEF
BQcDAQYIKwYBBQUHAwIwCQYDVR0TBAIwADAdBgNVHQ4EFgQUFJhYSczOHoJufDcx
fevqOA0TlpMwHwYDVR0jBBgwFoAUGJ5wOMdavdlcJ5B662CJBUt70TgwDQYJKoZI
hvcNAQELBQADggIBAJFiS3lV+x2tcjXq9UsQh6BS4MqQyvQjhACa2MeyeifFAoa5
aKUrga7EEYmQyNn5bL8wXFvrF0qWXM1B/QgQ9YgO6cH8mHimQvn2T3qkrScVpMAl
a427BoaAk4zgxigsT8oGV6bGcCFPzzdhI6SxPj+2w+XmDQituvC1fmvMfiG45b+i
++mrsj81ToUyagl+ktFYMbmEjrSvlfuTPUWyXJsdKR9vDb0C3O4hEqmPY5OVkSrg
2uvX6hvAA2+42MOscyYHvfEvrHaPq+QNAWINfU4KG6EFfgT2W8FxcIdLweFw5RwM
6FmwFgw7GyIXLn3OOLolsdIC5yL21vKyNdpI7ugz7t0uk4rzPlU8ZdRlwsKLDvzW
x1NA5Zi1YKwln/w8WtwNLdnvPSTlDuCD3IyVWzjrqAsaRT/vV+z7LlaeXuo3KJv0
FoXr+ysJam8NsOCke9YtY6wCQgC3IoZx7ej60uywDXzjaLHhWUFJYbyVkNjoCwFM
abXiy6YDXD1cKu4OEjXaWtCP7kC0utibndXsthDPEEjUrRSYLnEpRsWdTcnKI4/U
OEyPSVov2CCQ4nUt5EgbfIbRVECQENB1rVQbD+Lg4pa7hzIwyrfTRBquRkuOtXmi
VMX/XiFqVeHtbgDyun+6tyPsEffdp7RgackOB2AMszWtY7c50XsiiphplGWj
-----END CERTIFICATE-----
