Certificate:
    Data:
        Version: 3 (0x2)
        Serial Number: 4096 (0x1000)
        Signature Algorithm: sha256WithRSAEncryption
        Issuer: CN=NationalBank-Root-CA
        Validity
            Not Before: Aug 10 09:43:15 2025 GMT
            Not After : Nov 13 09:43:15 2027 GMT
        Subject: C=IN, ST=Karnataka, L=Bangalore, O=acme, OU=acme, CN=api.acme.com
        Subject Public Key Info:
            Public Key Algorithm: rsaEncryption
                Public-Key: (2048 bit)
                Modulus:
                    00:bb:fc:5a:3c:6a:1c:72:a3:11:86:06:15:13:07:
                    9a:f7:d7:fb:c0:8c:6e:ec:99:ca:19:5f:aa:48:32:
                    f3:10:f2:3d:94:08:f1:a9:51:3a:b2:d2:4d:4d:48:
                    a1:cb:2f:ef:7c:11:b3:e3:16:7e:a4:b4:1e:ba:fd:
                    12:78:e3:3d:f0:da:b9:66:f8:3d:27:37:e6:44:93:
                    97:c9:16:51:8d:c5:35:16:e9:ed:2b:87:16:27:f8:
                    63:c5:57:d4:03:3e:2b:88:1e:0b:42:bc:db:e1:60:
                    d8:29:cd:a0:2e:6b:58:b9:f2:d0:b4:bf:cd:6e:5b:
                    79:93:8c:de:66:c5:ae:d3:98:f2:5a:32:27:a7:fd:
                    74:a9:09:43:09:5d:d1:a2:d7:5a:fa:3b:bd:d5:1f:
                    ab:7b:e5:57:5c:07:56:a4:4f:20:99:b9:ab:0a:ca:
                    50:79:b3:7e:04:8d:9f:f0:ef:a9:47:85:d6:fe:5f:
                    5d:ed:0d:5d:68:6e:20:0e:e8:77:4c:47:41:5c:27:
                    2d:c5:0f:d3:3d:53:d6:37:bd:f9:2c:9c:10:dd:f5:
                    79:39:b8:d8:83:25:a1:87:81:15:f3:63:f2:64:ad:
                    ec:0c:12:ea:50:73:f9:2a:76:0e:6c:1e:7e:8c:37:
                    60:7a:16:1a:3b:50:8d:eb:67:b1:6f:95:e1:64:63:
                    d7:e5
                Exponent: 65537 (0x10001)
        X509v3 extensions:
            X509v3 Subject Alternative Name: 
                DNS:api.acme.com
            X509v3 Key Usage: 
                Digital Signature, Key Encipherment
            X509v3 Extended Key Usage: 
                TLS Web Server Authentication, TLS Web Client Authentication
            X509v3 Basic Constraints: 
                CA:FALSE
            X509v3 Subject Key Identifier: 
                90:1A:DE:1A:6E:42:E5:8A:DC:97:C5:2C:F2:85:08:70:50:DA:A8:C1
            X509v3 Authority Key Identifier: 
                18:9E:70:38:C7:5A:BD:D9:5C:27:90:7A:EB:60:89:05:4B:7B:D1:38
    Signature Algorithm: sha256WithRSAEncryption
    Signature Value:
        62:82:5f:5f:d2:37:2a:e1:0f:fa:82:dd:96:1a:a9:52:e4:43:
        d9:e2:ce:d7:48:3d:3a:ff:d8:2e:d9:fb:5d:fd:f1:78:3f:d1:
        67:64:52:e8:c2:e3:ea:cf:c0:92:ec:e7:b8:0b:ff:a4:61:bb:
        e9:46:4b:ab:e7:d4:be:60:0a:f5:17:ac:70:58:c9:ca:93:44:
        d1:a8:e9:47:89:4f:2b:20:de:34:d5:18:66:11:83:44:cb:a4:
        e8:f9:b7:25:2c:3a:b9:05:c3:6d:36:f9:bd:7e:41:03:f7:89:
        61:7e:03:12:f5:1e:56:27:ea:9e:eb:6d:96:38:2f:66:98:3e:
        5f:28:69:c3:1d:5c:00:df:ba:2b:2e:df:98:e8:a6:d6:d5:a0:
        4a:a7:58:c7:cc:d5:ab:09:d8:d5:4b:c4:8e:e0:53:1d:d8:f7:
        16:c6:9f:53:e0:98:7e:d4:ae:47:4b:92:df:c8:e2:23:e2:a4:
        fa:5f:6b:5f:a2:31:49:34:24:fe:29:25:e4:e3:ca:7c:8f:d0:
        6e:a8:73:47:c9:ec:46:da:26:2d:60:cd:62:d2:84:82:d4:f8:
        e0:68:d9:3c:21:8d:ca:c3:81:ab:d2:b4:3f:04:16:28:07:aa:
        94:82:48:88:46:25:b3:3e:b4:53:1b:d9:e7:1b:74:e9:fb:d4:
        d4:8e:95:e0:6a:83:f6:16:00:ce:29:b0:7e:90:93:a3:88:a8:
        0f:f2:ab:0d:12:92:c8:d8:ed:95:44:d5:1e:f8:1c:51:cd:eb:
        dd:40:7c:54:06:37:de:3d:d7:47:cf:8f:89:a1:a0:58:83:b5:
        d1:cc:5e:f1:38:4b:c2:5a:6d:6d:08:50:34:6e:49:8c:a6:be:
        46:a9:4c:18:3a:18:79:bc:00:53:1f:90:90:bd:90:34:38:09:
        af:4a:5c:a4:10:5c:52:cf:47:00:5a:d8:90:d1:ce:44:4d:30:
        f1:f0:f8:15:fa:cf:c3:e2:dd:7d:30:74:15:76:27:51:90:31:
        0f:3d:30:a1:44:b1:b0:f0:a8:46:af:f2:ec:1b:7b:07:b6:c0:
        32:6c:35:50:d2:03:47:e7:a4:c3:c3:e6:9d:c4:c5:38:e9:1a:
        a2:e9:46:b9:d1:41:36:aa:fd:6f:f8:79:a0:d1:a0:f4:31:2a:
        e9:c3:1d:36:9c:61:26:f5:8c:59:99:a2:5b:c8:c7:73:ed:0a:
        ac:94:13:29:2e:df:61:df:07:da:c2:9d:2e:ef:90:c9:5c:bd:
        a7:69:6b:c4:1f:03:5e:54:6f:29:d5:d2:1e:97:79:70:9e:19:
        6c:ce:48:c3:23:6c:c4:2d:a9:09:67:49:2f:b2:da:d8:77:07:
        92:62:44:56:59:53:77:d7
-----BEGIN CERTIFICATE-----
MIIEmTCCAoGgAwIBAgICEAAwDQYJKoZIhvcNAQELBQAwHzEdMBsGA1UEAwwUTmF0
aW9uYWxCYW5rLVJvb3QtQ0EwHhcNMjUwODEwMDk0MzE1WhcNMjcxMTEzMDk0MzE1
WjBqMQswCQYDVQQGEwJJTjESMBAGA1UECAwJS2FybmF0YWthMRIwEAYDVQQHDAlC
YW5nYWxvcmUxDTALBgNVBAoMBGFjbWUxDTALBgNVBAsMBGFjbWUxFTATBgNVBAMM
DGFwaS5hY21lLmNvbTCCASIwDQYJKoZIhvcNAQEBBQADggEPADCCAQoCggEBALv8
WjxqHHKjEYYGFRMHmvfX+8CMbuyZyhlfqkgy8xDyPZQI8alROrLSTU1Iocsv73wR
s+MWfqS0Hrr9EnjjPfDauWb4PSc35kSTl8kWUY3FNRbp7SuHFif4Y8VX1AM+K4ge
C0K82+Fg2CnNoC5rWLny0LS/zW5beZOM3mbFrtOY8loyJ6f9dKkJQwld0aLXWvo7
vdUfq3vlV1wHVqRPIJm5qwrKUHmzfgSNn/DvqUeF1v5fXe0NXWhuIA7od0xHQVwn
LcUP0z1T1je9+SycEN31eTm42IMloYeBFfNj8mSt7AwS6lBz+Sp2Dmwefow3YHoW
GjtQjetnsW+V4WRj1+UCAwEAAaOBkzCBkDAXBgNVHREEEDAOggxhcGkuYWNtZS5j
b20wCwYDVR0PBAQDAgWgMB0GA1UdJQQWMBQGCCsGAQUFBwMBBggrBgEFBQcDAjAJ
BgNVHRMEAjAAMB0GA1UdDgQWBBSQGt4abkLlityXxSzyhQhwUNqowTAfBgNVHSME
GDAWgBQYnnA4x1q92VwnkHrrYIkFS3vRODANBgkqhkiG9w0BAQsFAAOCAgEAYoJf
X9I3KuEP+oLdlhqpUuRD2eLO10g9Ov/YLtn7Xf3xeD/RZ2RS6MLj6s/AkuznuAv/
pGG76UZLq+fUvmAK9RescFjJypNE0ajpR4lPKyDeNNUYZhGDRMuk6Pm3JSw6uQXD
bTb5vX5BA/eJYX4DEvUeVifqnuttljgvZpg+Xyhpwx1cAN+6Ky7fmOim1tWgSqdY
x8zVqwnY1UvEjuBTHdj3FsafU+CYftSuR0uS38jiI+Kk+l9rX6IxSTQk/ikl5OPK
fI/QbqhzR8nsRtomLWDNYtKEgtT44GjZPCGNysOBq9K0PwQWKAeqlIJIiEYlsz60
UxvZ5xt06fvU1I6V4GqD9hYAzimwfpCTo4ioD/KrDRKSyNjtlUTVHvgcUc3r3UB8
VAY33j3XR8+PiaGgWIO10cxe8ThLwlptbQhQNG5JjKa+RqlMGDoYebwAUx+QkL2Q
NDgJr0pcpBBcUs9HAFrYkNHORE0w8fD4FfrPw+LdfTB0FXYnUZAxDz0woUSxsPCo
Rq/y7Bt7B7bAMmw1UNIDR+ekw8PmncTFOOkaoulGudFBNqr9b/h5oNGg9DEq6cMd
NpxhJvWMWZmiW8jHc+0KrJQTKS7fYd8H2sKdLu+QyVy9p2lrxB8DXlRvKdXSHpd5
cJ4ZbM5IwyNsxC2pCWdJL7La2HcHkmJEVllTd9c=
-----END CERTIFICATE-----
